	.file	"kitchenTimer.ino.cpp"
__SP_H__ = 0x3e
__SP_L__ = 0x3d
__SREG__ = 0x3f
__tmp_reg__ = 0
__zero_reg__ = 1
	.text
.Ltext0:
	.cfi_sections	.debug_frame
	.section	.text._Z12prepareDigithh,"ax",@progbits
.global	_Z12prepareDigithh
	.type	_Z12prepareDigithh, @function
_Z12prepareDigithh:
.LFB113:
	.file 1 "/home/pif/GitHub/piif/ArduinoTests/kitchenTimer/kitchenTimer.ino"
	.loc 1 146 0
	.cfi_startproc
.LVL0:
/* prologue: function */
/* frame size = 0 */
/* stack size = 0 */
.L__stack_usage = 0
	.loc 1 147 0
	in r25,0xb
	andi r25,lo8(3)
.LVL1:
	.loc 1 149 0
	sbrc r22,7
	rjmp .L2
	.loc 1 147 0
	ori r25,lo8(-60)
.LVL2:
.L3:
	.loc 1 150 0
	sbrc r22,6
	.loc 1 150 0 is_stmt 0 discriminator 1
	andi r25,lo8(127)
.LVL3:
.L4:
	.loc 1 151 0 is_stmt 1
	ldi r18,lo8(27)
	sbrs r22,5
	.loc 1 147 0
	ldi r18,lo8(31)
.L5:
.LVL4:
	.loc 1 152 0
	sbrc r22,4
	.loc 1 152 0 is_stmt 0 discriminator 1
	andi r18,lo8(-9)
.LVL5:
.L6:
	.loc 1 153 0 is_stmt 1
	sbrc r22,3
	.loc 1 153 0 is_stmt 0 discriminator 1
	andi r18,lo8(-17)
.LVL6:
.L7:
	.loc 1 154 0 is_stmt 1
	sbrc r22,2
	.loc 1 154 0 is_stmt 0 discriminator 1
	andi r18,lo8(-2)
.LVL7:
.L8:
	.loc 1 155 0 is_stmt 1
	sbrc r22,1
	.loc 1 155 0 is_stmt 0 discriminator 1
	andi r18,lo8(-3)
.LVL8:
.L9:
	.loc 1 156 0 is_stmt 1
	sbrc r22,0
	.loc 1 156 0 is_stmt 0 discriminator 1
	andi r25,lo8(-5)
.LVL9:
.L10:
	.loc 1 158 0 is_stmt 1
	mov r20,r24
	ldi r21,0
	cpi r24,lo8(1)
	breq .L12
.LVL10:
	brlo .L13
	cpi r24,lo8(2)
	breq .L14
.L11:
	.loc 1 166 0
	movw r30,r20
	subi r30,lo8(-(displayPortB))
	sbci r31,hi8(-(displayPortB))
	st Z,r18
	.loc 1 167 0
	subi r20,lo8(-(displayPortD))
	sbci r21,hi8(-(displayPortD))
.LVL11:
	movw r30,r20
	st Z,r25
/* epilogue start */
	.loc 1 168 0
	ret
.LVL12:
.L2:
	.loc 1 149 0 discriminator 1
	ori r25,lo8(-124)
.LVL13:
	rjmp .L3
.LVL14:
.L13:
	.loc 1 159 0
	ori r25,lo8(32)
.LVL15:
	.loc 1 160 0
	rjmp .L11
.L12:
	.loc 1 161 0
	ori r25,lo8(16)
.LVL16:
	.loc 1 162 0
	rjmp .L11
.L14:
	.loc 1 163 0
	ori r25,lo8(8)
.LVL17:
	.loc 1 164 0
	rjmp .L11
	.cfi_endproc
.LFE113:
	.size	_Z12prepareDigithh, .-_Z12prepareDigithh
	.section	.text._Z10setDisplayi,"ax",@progbits
.global	_Z10setDisplayi
	.type	_Z10setDisplayi, @function
_Z10setDisplayi:
.LFB112:
	.loc 1 119 0
	.cfi_startproc
.LVL18:
	push r28
.LCFI0:
	.cfi_def_cfa_offset 3
	.cfi_offset 28, -2
	push r29
.LCFI1:
	.cfi_def_cfa_offset 4
	.cfi_offset 29, -3
/* prologue: function */
/* frame size = 0 */
/* stack size = 2 */
.L__stack_usage = 2
	movw r30,r24
	.loc 1 120 0
	sts display+1,r25
	sts display,r24
.LVL19:
	.loc 1 127 0
	ldi r28,0
	.loc 1 126 0
	ldi r29,0
	.loc 1 125 0
	ldi r18,0
	.loc 1 124 0
	cpi r30,-1
	cpc r31,r30
.LVL20:
	breq .L35
	.loc 1 129 0
	lds r18,mapSegments+10
.LVL21:
	.loc 1 131 0
	mov r28,r18
	.loc 1 130 0
	mov r29,r18
	.loc 1 128 0
	cpi r30,-2
	ldi r24,-1
	cpc r31,r24
	breq .L35
	.loc 1 135 0
	ldi r28,lo8(-1)
	.loc 1 134 0
	ldi r29,lo8(-1)
	.loc 1 133 0
	ldi r18,lo8(-1)
.LVL22:
	.loc 1 132 0
	cpi r30,-3
	ldi r24,-1
	cpc r31,r24
	breq .L35
	.loc 1 137 0
	movw r24,r30
	ldi r22,lo8(100)
	ldi r23,0
	call __divmodhi4
	movw r24,r22
	ldi r28,lo8(10)
	ldi r29,0
	movw r22,r28
	call __divmodhi4
	movw r26,r24
	subi r26,lo8(-(mapSegments))
	sbci r27,hi8(-(mapSegments))
	ld r18,X
	ori r18,lo8(1)
.LVL23:
	.loc 1 138 0
	movw r24,r30
	movw r22,r28
	call __divmodhi4
	movw r30,r24
.LVL24:
	movw r24,r22
	movw r22,r28
	call __divmodhi4
	movw r26,r24
	subi r26,lo8(-(mapSegments))
	sbci r27,hi8(-(mapSegments))
	ld r29,X
.LVL25:
	.loc 1 139 0
	subi r30,lo8(-(mapSegments))
	sbci r31,hi8(-(mapSegments))
	ld r28,Z
.LVL26:
.L35:
	.loc 1 141 0
	mov r22,r18
	ldi r24,0
	call _Z12prepareDigithh
.LVL27:
	.loc 1 142 0
	mov r22,r29
	ldi r24,lo8(1)
	call _Z12prepareDigithh
.LVL28:
	.loc 1 143 0
	mov r22,r28
	ldi r24,lo8(2)
/* epilogue start */
	.loc 1 144 0
	pop r29
.LVL29:
	pop r28
.LVL30:
	.loc 1 143 0
	jmp _Z12prepareDigithh
.LVL31:
	.cfi_endproc
.LFE112:
	.size	_Z10setDisplayi, .-_Z10setDisplayi
	.section	.text._Z11outputDigith,"ax",@progbits
.global	_Z11outputDigith
	.type	_Z11outputDigith, @function
_Z11outputDigith:
.LFB114:
	.loc 1 170 0
	.cfi_startproc
.LVL32:
/* prologue: function */
/* frame size = 0 */
/* stack size = 0 */
.L__stack_usage = 0
	.loc 1 171 0
	in r18,0x5
	ldi r25,0
	andi r18,lo8(-32)
	movw r30,r24
	subi r30,lo8(-(displayPortB))
	sbci r31,hi8(-(displayPortB))
	ld r19,Z
	or r18,r19
	out 0x5,r18
	.loc 1 172 0
	in r18,0xb
	andi r18,lo8(3)
	subi r24,lo8(-(displayPortD))
	sbci r25,hi8(-(displayPortD))
.LVL33:
	movw r30,r24
	ld r24,Z
	or r24,r18
	out 0xb,r24
/* epilogue start */
	.loc 1 173 0
	ret
	.cfi_endproc
.LFE114:
	.size	_Z11outputDigith, .-_Z11outputDigith
	.section	.text._Z13updateDisplayv,"ax",@progbits
.global	_Z13updateDisplayv
	.type	_Z13updateDisplayv, @function
_Z13updateDisplayv:
.LFB115:
	.loc 1 175 0
	.cfi_startproc
	push r28
.LCFI2:
	.cfi_def_cfa_offset 3
	.cfi_offset 28, -2
/* prologue: function */
/* frame size = 0 */
/* stack size = 1 */
.L__stack_usage = 1
	.loc 1 176 0
	lds r24,status
	lds r25,status+1
	or r24,r25
	breq .L41
	.loc 1 176 0 is_stmt 0 discriminator 1
	lds r24,display
	lds r25,display+1
	adiw r24,1
	brne .L42
.L41:
	.loc 1 178 0 is_stmt 1
	in r24,0xb
	andi r24,lo8(-57)
	out 0xb,r24
.L40:
/* epilogue start */
	.loc 1 185 0
	pop r28
	ret
.L42:
	.loc 1 183 0
	lds r28,_ZZ13updateDisplayvE5digit
	mov r24,r28
	call _Z11outputDigith
.LVL34:
	.loc 1 184 0
	mov r24,r28
	ldi r25,0
	adiw r24,1
	ldi r22,lo8(3)
	ldi r23,0
	call __divmodhi4
	sts _ZZ13updateDisplayvE5digit,r24
	rjmp .L40
	.cfi_endproc
.LFE115:
	.size	_Z13updateDisplayv, .-_Z13updateDisplayv
	.section	.text._Z10updateRingm,"ax",@progbits
.global	_Z10updateRingm
	.type	_Z10updateRingm, @function
_Z10updateRingm:
.LFB116:
	.loc 1 187 0
	.cfi_startproc
.LVL35:
	push r12
.LCFI3:
	.cfi_def_cfa_offset 3
	.cfi_offset 12, -2
	push r13
.LCFI4:
	.cfi_def_cfa_offset 4
	.cfi_offset 13, -3
	push r14
.LCFI5:
	.cfi_def_cfa_offset 5
	.cfi_offset 14, -4
	push r15
.LCFI6:
	.cfi_def_cfa_offset 6
	.cfi_offset 15, -5
/* prologue: function */
/* frame size = 0 */
/* stack size = 4 */
.L__stack_usage = 4
	movw r12,r22
	movw r14,r24
	.loc 1 188 0
	lds r24,ring
	cpse r24,__zero_reg__
	rjmp .L48
.LVL36:
.LBB4:
.LBB5:
	.loc 1 189 0
	ldi r24,lo8(13)
	call _Z6noToneh
.LVL37:
	.loc 1 190 0
	ldi r24,lo8(3)
	ldi r25,0
	sts status+1,r25
	sts status,r24
	.loc 1 191 0
	ldi r24,-60
	add r12,r24
	ldi r24,9
	adc r13,r24
	adc r14,__zero_reg__
	adc r15,__zero_reg__
.LVL38:
	sts timerNext,r12
	sts timerNext+1,r13
	sts timerNext+2,r14
	sts timerNext+3,r15
	.loc 1 192 0
	ldi r24,lo8(-2)
	ldi r25,lo8(-1)
/* epilogue start */
.LBE5:
.LBE4:
	.loc 1 204 0
	pop r15
	pop r14
	pop r13
	pop r12
.LVL39:
.LBB7:
.LBB6:
	.loc 1 192 0
	jmp _Z10setDisplayi
.LVL40:
.L48:
.LBE6:
.LBE7:
	.loc 1 194 0
	sbrs r24,0
	rjmp .L49
	.loc 1 195 0
	ldi r18,0
	ldi r19,0
	movw r20,r18
	ldi r22,lo8(-24)
	ldi r23,lo8(3)
.LVL41:
	ldi r24,lo8(13)
	call _Z4tonehjm
.LVL42:
	.loc 1 196 0
	ldi r24,lo8(-3)
	ldi r25,lo8(-1)
.L51:
	.loc 1 199 0
	call _Z10setDisplayi
.LVL43:
	.loc 1 201 0
	ldi r24,-12
	add r12,r24
	ldi r24,1
	adc r13,r24
	adc r14,__zero_reg__
	adc r15,__zero_reg__
	sts timerNext,r12
	sts timerNext+1,r13
	sts timerNext+2,r14
	sts timerNext+3,r15
	.loc 1 202 0
	lds r24,ring
	subi r24,lo8(-(-1))
	sts ring,r24
/* epilogue start */
	.loc 1 204 0
	pop r15
	pop r14
	pop r13
	pop r12
	ret
.LVL44:
.L49:
	.loc 1 198 0
	ldi r24,lo8(13)
	call _Z6noToneh
.LVL45:
	.loc 1 199 0
	ldi r24,lo8(-1)
	ldi r25,lo8(-1)
	rjmp .L51
	.cfi_endproc
.LFE116:
	.size	_Z10updateRingm, .-_Z10updateRingm
	.section	.text._Z13updateButtonsm,"ax",@progbits
.global	_Z13updateButtonsm
	.type	_Z13updateButtonsm, @function
_Z13updateButtonsm:
.LFB117:
	.loc 1 206 0
	.cfi_startproc
.LVL46:
	push r12
.LCFI7:
	.cfi_def_cfa_offset 3
	.cfi_offset 12, -2
	push r13
.LCFI8:
	.cfi_def_cfa_offset 4
	.cfi_offset 13, -3
	push r14
.LCFI9:
	.cfi_def_cfa_offset 5
	.cfi_offset 14, -4
	push r15
.LCFI10:
	.cfi_def_cfa_offset 6
	.cfi_offset 15, -5
	push r17
.LCFI11:
	.cfi_def_cfa_offset 7
	.cfi_offset 17, -6
	push r28
.LCFI12:
	.cfi_def_cfa_offset 8
	.cfi_offset 28, -7
	push r29
.LCFI13:
	.cfi_def_cfa_offset 9
	.cfi_offset 29, -8
/* prologue: function */
/* frame size = 0 */
/* stack size = 7 */
.L__stack_usage = 7
	movw r12,r22
	movw r14,r24
.LVL47:
.LBB8:
	.loc 1 208 0
	lds r24,buttonLastChanged
	lds r25,buttonLastChanged+1
	lds r26,buttonLastChanged+2
	lds r27,buttonLastChanged+3
	sbiw r24,0
	cpc r26,__zero_reg__
	cpc r27,__zero_reg__
	breq .L53
	.loc 1 208 0 is_stmt 0 discriminator 1
	subi r24,-100
	sbci r25,-1
	sbci r26,-1
	sbci r27,-1
	cp r24,r12
	cpc r25,r13
	cpc r26,r14
	cpc r27,r15
	brlo .+2
	rjmp .L52
.L53:
.LBB9:
	.loc 1 209 0 is_stmt 1
	sts buttonLastChanged,r12
	sts buttonLastChanged+1,r13
	sts buttonLastChanged+2,r14
	sts buttonLastChanged+3,r15
	.loc 1 210 0
	ldi r24,lo8(15)
	call digitalRead
.LVL48:
	movw r28,r24
	ldi r17,lo8(1)
	or r24,r25
	breq .L55
	ldi r17,0
.L55:
.LVL49:
	.loc 1 211 0
	ldi r24,lo8(14)
	call digitalRead
.LVL50:
	movw r18,r24
	ldi r25,lo8(1)
	cp r18,__zero_reg__
	cpc r19,__zero_reg__
	breq .L56
	ldi r25,0
.L56:
.LVL51:
	.loc 1 212 0
	lds r24,BUp
	cpse r24,r25
	rjmp .L57
.L59:
.LBE9:
.LBE8:
	.loc 1 207 0
	ldi r24,0
.LVL52:
.L58:
.LBB12:
.LBB10:
	.loc 1 231 0
	lds r25,BDown
	cp r25,r17
	brne .+2
	rjmp .L63
	.loc 1 232 0
	sts BDown,r17
	.loc 1 233 0
	or r28,r29
	breq .+2
	rjmp .L63
.LVL53:
	.loc 1 236 0
	lds r24,status
	lds r25,status+1
	cpi r24,1
	cpc r25,__zero_reg__
	breq .+2
	rjmp .L64
	.loc 1 237 0
	lds r24,display
	lds r25,display+1
	cpi r24,6
	cpc r25,__zero_reg__
	brge .+2
	rjmp .L65
	.loc 1 238 0
	sbiw r24,5
	call _Z10setDisplayi
.LVL54:
.L66:
	.loc 1 251 0
	ldi r18,lo8(5)
	ldi r19,0
	ldi r20,0
	ldi r21,0
	ldi r22,lo8(112)
	ldi r23,lo8(3)
	ldi r24,lo8(13)
/* epilogue start */
.LBE10:
.LBE12:
	.loc 1 254 0
	pop r29
	pop r28
	pop r17
.LVL55:
	pop r15
	pop r14
	pop r13
	pop r12
.LBB13:
.LBB11:
	.loc 1 251 0
	jmp _Z4tonehjm
.LVL56:
.L57:
	.loc 1 213 0
	sts BUp,r25
	.loc 1 214 0
	or r18,r19
	brne .L59
.LVL57:
	.loc 1 217 0
	lds r24,status
	lds r25,status+1
	cpi r24,1
	cpc r25,__zero_reg__
	brne .L60
	.loc 1 218 0
	lds r24,display
	lds r25,display+1
	cpi r24,-30
	ldi r18,3
	cpc r25,r18
	brge .L71
	.loc 1 219 0
	adiw r24,5
	call _Z10setDisplayi
.LVL58:
.L71:
	.loc 1 216 0
	ldi r24,lo8(1)
	rjmp .L58
.LVL59:
.L60:
	.loc 1 221 0
	sbiw r24,0
	breq .L61
	.loc 1 221 0 is_stmt 0 discriminator 1
	cpi r24,3
	cpc r25,__zero_reg__
	brne .L62
.L61:
	.loc 1 222 0 is_stmt 1
	ldi r24,lo8(5)
	ldi r25,0
	call _Z10setDisplayi
.LVL60:
	.loc 1 223 0
	ldi r24,lo8(1)
	ldi r25,0
	sts status+1,r25
	sts status,r24
	.loc 1 224 0
	call millis
.LVL61:
	subi r22,24
	sbci r23,-4
	sbci r24,-1
	sbci r25,-1
	sts timerNext,r22
	sts timerNext+1,r23
	sts timerNext+2,r24
	sts timerNext+3,r25
	rjmp .L71
.LVL62:
.L62:
	.loc 1 225 0
	sbiw r24,2
	brne .L71
	.loc 1 226 0
	sts ring,__zero_reg__
	.loc 1 227 0
	movw r24,r14
	movw r22,r12
	call _Z10updateRingm
.LVL63:
	rjmp .L71
.L65:
	.loc 1 239 0
	cp __zero_reg__,r24
	cpc __zero_reg__,r25
	brlt .+2
	rjmp .L66
	.loc 1 240 0
	ldi r25,0
	ldi r24,0
	call _Z10setDisplayi
.LVL64:
	.loc 1 241 0
	ldi r24,lo8(3)
	ldi r25,0
	sts status+1,r25
	sts status,r24
	.loc 1 242 0
	ldi r24,-60
	add r12,r24
	ldi r24,9
	adc r13,r24
	adc r14,__zero_reg__
	adc r15,__zero_reg__
	sts timerNext,r12
	sts timerNext+1,r13
	sts timerNext+2,r14
	sts timerNext+3,r15
	rjmp .L66
.L64:
	.loc 1 244 0
	sbiw r24,2
	breq .+2
	rjmp .L66
	.loc 1 245 0
	sts ring,__zero_reg__
	.loc 1 246 0
	movw r24,r14
	movw r22,r12
	call _Z10updateRingm
.LVL65:
	rjmp .L66
.LVL66:
.L63:
	.loc 1 250 0
	cpse r24,__zero_reg__
	rjmp .L66
.LVL67:
.L52:
/* epilogue start */
.LBE11:
.LBE13:
	.loc 1 254 0
	pop r29
	pop r28
	pop r17
	pop r15
	pop r14
	pop r13
	pop r12
	ret
	.cfi_endproc
.LFE117:
	.size	_Z13updateButtonsm, .-_Z13updateButtonsm
	.section	.text.__vector_13,"ax",@progbits
.global	__vector_13
	.type	__vector_13, @function
__vector_13:
.LFB118:
	.loc 1 258 0
	.cfi_startproc
	push r1
.LCFI14:
	.cfi_def_cfa_offset 3
	.cfi_offset 1, -2
	push r0
.LCFI15:
	.cfi_def_cfa_offset 4
	.cfi_offset 0, -3
	in r0,__SREG__
	push r0
	clr __zero_reg__
	push r24
.LCFI16:
	.cfi_def_cfa_offset 5
	.cfi_offset 24, -4
	push r25
.LCFI17:
	.cfi_def_cfa_offset 6
	.cfi_offset 25, -5
	push r26
.LCFI18:
	.cfi_def_cfa_offset 7
	.cfi_offset 26, -6
	push r27
.LCFI19:
	.cfi_def_cfa_offset 8
	.cfi_offset 27, -7
/* prologue: Signal */
/* frame size = 0 */
/* stack size = 7 */
.L__stack_usage = 7
	.loc 1 259 0
	lds r24,myMillis
	lds r25,myMillis+1
	lds r26,myMillis+2
	lds r27,myMillis+3
	adiw r24,1
	adc r26,__zero_reg__
	adc r27,__zero_reg__
	sts myMillis,r24
	sts myMillis+1,r25
	sts myMillis+2,r26
	sts myMillis+3,r27
/* epilogue start */
	.loc 1 260 0
	pop r27
	pop r26
	pop r25
	pop r24
	pop r0
	out __SREG__,r0
	pop r0
	pop r1
	reti
	.cfi_endproc
.LFE118:
	.size	__vector_13, .-__vector_13
	.section	.rodata.setup.str1.1,"aMS",@progbits,1
.LC0:
	.string	"Setup OK"
	.section	.text.setup,"ax",@progbits
.global	setup
	.type	setup, @function
setup:
.LFB119:
	.loc 1 262 0
	.cfi_startproc
/* prologue: function */
/* frame size = 0 */
/* stack size = 0 */
.L__stack_usage = 0
.LVL68:
.LBB16:
.LBB17:
	.file 2 "/home/pif/.arduino15/packages/arduino/hardware/avr/1.8.4/cores/arduino/HardwareSerial.h"
	.loc 2 121 0
	ldi r18,lo8(6)
	ldi r20,0
	ldi r21,lo8(-62)
	ldi r22,lo8(1)
	ldi r23,0
	ldi r24,lo8(Serial)
	ldi r25,hi8(Serial)
	call _ZN14HardwareSerial5beginEmh
.LVL69:
.LBE17:
.LBE16:
	.loc 1 266 0
	ldi r22,lo8(1)
	ldi r24,lo8(5)
	call pinMode
.LVL70:
	.loc 1 267 0
	ldi r22,lo8(1)
	ldi r24,lo8(4)
	call pinMode
.LVL71:
	.loc 1 268 0
	ldi r22,lo8(1)
	ldi r24,lo8(3)
	call pinMode
.LVL72:
	.loc 1 270 0
	ldi r22,lo8(1)
	ldi r24,lo8(6)
	call pinMode
.LVL73:
	.loc 1 271 0
	ldi r22,lo8(1)
	ldi r24,lo8(7)
	call pinMode
.LVL74:
	.loc 1 272 0
	ldi r22,lo8(1)
	ldi r24,lo8(10)
	call pinMode
.LVL75:
	.loc 1 273 0
	ldi r22,lo8(1)
	ldi r24,lo8(11)
	call pinMode
.LVL76:
	.loc 1 274 0
	ldi r22,lo8(1)
	ldi r24,lo8(12)
	call pinMode
.LVL77:
	.loc 1 275 0
	ldi r22,lo8(1)
	ldi r24,lo8(8)
	call pinMode
.LVL78:
	.loc 1 276 0
	ldi r22,lo8(1)
	ldi r24,lo8(9)
	call pinMode
.LVL79:
	.loc 1 277 0
	ldi r22,lo8(1)
	ldi r24,lo8(2)
	call pinMode
.LVL80:
	.loc 1 279 0
	ldi r22,lo8(2)
	ldi r24,lo8(14)
	call pinMode
.LVL81:
	.loc 1 280 0
	ldi r22,lo8(2)
	ldi r24,lo8(15)
	call pinMode
.LVL82:
	.loc 1 282 0
	ldi r22,lo8(1)
	ldi r24,lo8(13)
	call pinMode
.LVL83:
	.loc 1 291 0
	ldi r24,lo8(-23)
	ldi r25,lo8(3)
	sts 134+1,r25
	sts 134,r24
	.loc 1 292 0
	ldi r24,lo8(-12)
	ldi r25,lo8(1)
	sts 136+1,r25
	sts 136,r24
	.loc 1 295 0
	ldi r24,lo8(2)
	sts 128,r24
	.loc 1 296 0
	ldi r24,lo8(18)
	sts 129,r24
	.loc 1 297 0
	sts 130,__zero_reg__
	.loc 1 298 0
	ldi r24,lo8(1)
	sts 111,r24
	.loc 1 304 0
	ldi r22,lo8(.LC0)
	ldi r23,hi8(.LC0)
	ldi r24,lo8(Serial)
	ldi r25,hi8(Serial)
	jmp _ZN5Print7printlnEPKc
.LVL84:
	.cfi_endproc
.LFE119:
	.size	setup, .-setup
	.section	.rodata.loop.str1.1,"aMS",@progbits,1
.LC1:
	.string	"myMillis "
	.section	.text.loop,"ax",@progbits
.global	loop
	.type	loop, @function
loop:
.LFB120:
	.loc 1 309 0
	.cfi_startproc
/* prologue: function */
/* frame size = 0 */
/* stack size = 0 */
.L__stack_usage = 0
	.loc 1 311 0
	ldi r24,lo8(14)
	call digitalRead
.LVL85:
	movw r18,r24
	ldi r25,lo8(1)
	cp r18,__zero_reg__
	cpc r19,__zero_reg__
	breq .L87
	ldi r25,0
.L87:
.LVL86:
	.loc 1 312 0
	lds r24,_ZZ4loopE3BUp
	cp r24,r25
	brne .+2
	rjmp .L86
	.loc 1 313 0
	sts _ZZ4loopE3BUp,r25
	.loc 1 314 0
	or r18,r19
	breq .+2
	rjmp .L89
	.loc 1 316 0
	ldi r22,lo8(.LC1)
	ldi r23,hi8(.LC1)
	ldi r24,lo8(Serial)
	ldi r25,hi8(Serial)
	call _ZN5Print5printEPKc
.LVL87:
	lds r20,myMillis
	lds r21,myMillis+1
	lds r22,myMillis+2
	lds r23,myMillis+3
	ldi r18,lo8(10)
	ldi r19,0
	ldi r24,lo8(Serial)
	ldi r25,hi8(Serial)
	call _ZN5Print7printlnEmi
.LVL88:
	.loc 1 317 0
	lds r22,128
	ldi r20,lo8(16)
	ldi r21,0
	ldi r24,lo8(Serial)
	ldi r25,hi8(Serial)
	call _ZN5Print7printlnEhi
.LVL89:
	.loc 1 318 0
	lds r22,129
	ldi r20,lo8(16)
	ldi r21,0
	ldi r24,lo8(Serial)
	ldi r25,hi8(Serial)
	call _ZN5Print7printlnEhi
.LVL90:
	.loc 1 319 0
	lds r22,130
	ldi r20,lo8(16)
	ldi r21,0
	ldi r24,lo8(Serial)
	ldi r25,hi8(Serial)
	call _ZN5Print7printlnEhi
.LVL91:
	.loc 1 320 0
	lds r22,134
	lds r23,134+1
	ldi r20,lo8(10)
	ldi r21,0
	ldi r24,lo8(Serial)
	ldi r25,hi8(Serial)
	call _ZN5Print7printlnEji
.LVL92:
	.loc 1 321 0
	lds r22,137
	lds r24,136
	mov r23,r22
	mov r22,r24
	ldi r20,lo8(10)
	ldi r21,0
	ldi r24,lo8(Serial)
	ldi r25,hi8(Serial)
	call _ZN5Print7printlnEii
.LVL93:
	.loc 1 323 0
	lds r24,128
	andi r24,lo8(63)
	ori r24,lo8(-128)
.L93:
	.loc 1 326 0
	sts 128,r24
.L86:
/* epilogue start */
	.loc 1 330 0
	ret
.LVL94:
.L89:
	.loc 1 326 0
	lds r24,128
	andi r24,lo8(63)
	rjmp .L93
	.cfi_endproc
.LFE120:
	.size	loop, .-loop
	.section	.bss._ZZ4loopE3BUp,"aw",@nobits
	.type	_ZZ4loopE3BUp, @object
	.size	_ZZ4loopE3BUp, 1
_ZZ4loopE3BUp:
	.zero	1
.global	myMillis
	.section	.bss.myMillis,"aw",@nobits
	.type	myMillis, @object
	.size	myMillis, 4
myMillis:
	.zero	4
	.section	.bss._ZZ13updateDisplayvE5digit,"aw",@nobits
	.type	_ZZ13updateDisplayvE5digit, @object
	.size	_ZZ13updateDisplayvE5digit, 1
_ZZ13updateDisplayvE5digit:
	.zero	1
.global	mapSegments
	.section	.data.mapSegments,"aw",@progbits
	.type	mapSegments, @object
	.size	mapSegments, 16
mapSegments:
	.byte	-4
	.byte	96
	.byte	-38
	.byte	-14
	.byte	102
	.byte	-74
	.byte	-66
	.byte	-32
	.byte	-2
	.byte	-10
	.byte	1
	.byte	0
	.byte	0
	.byte	0
	.byte	0
	.byte	0
.global	buttonLastChanged
	.section	.bss.buttonLastChanged,"aw",@nobits
	.type	buttonLastChanged, @object
	.size	buttonLastChanged, 4
buttonLastChanged:
	.zero	4
.global	BUp
	.section	.bss.BUp,"aw",@nobits
	.type	BUp, @object
	.size	BUp, 1
BUp:
	.zero	1
.global	BDown
	.section	.bss.BDown,"aw",@nobits
	.type	BDown, @object
	.size	BDown, 1
BDown:
	.zero	1
.global	ring
	.section	.bss.ring,"aw",@nobits
	.type	ring, @object
	.size	ring, 1
ring:
	.zero	1
.global	timerNext
	.section	.bss.timerNext,"aw",@nobits
	.type	timerNext, @object
	.size	timerNext, 4
timerNext:
	.zero	4
.global	displayPortD
	.section	.bss.displayPortD,"aw",@nobits
	.type	displayPortD, @object
	.size	displayPortD, 3
displayPortD:
	.zero	3
.global	displayPortB
	.section	.bss.displayPortB,"aw",@nobits
	.type	displayPortB, @object
	.size	displayPortB, 3
displayPortB:
	.zero	3
.global	displaySegments
	.section	.bss.displaySegments,"aw",@nobits
	.type	displaySegments, @object
	.size	displaySegments, 3
displaySegments:
	.zero	3
.global	display
	.section	.data.display,"aw",@progbits
	.type	display, @object
	.size	display, 2
display:
	.word	-1
	.section	.bss.status,"aw",@nobits
	.type	status, @object
	.size	status, 2
status:
	.zero	2
	.text
.Letext0:
	.file 3 "/home/pif/.arduino15/packages/arduino/tools/avr-gcc/7.3.0-atmel3.6.1-arduino7/avr/include/stdlib.h"
	.file 4 "/home/pif/.arduino15/packages/arduino/tools/avr-gcc/7.3.0-atmel3.6.1-arduino7/lib/gcc/avr/7.3.0/include/stddef.h"
	.file 5 "/home/pif/.arduino15/packages/arduino/tools/avr-gcc/7.3.0-atmel3.6.1-arduino7/avr/include/stdint.h"
	.file 6 "/home/pif/.arduino15/packages/arduino/hardware/avr/1.8.4/cores/arduino/Arduino.h"
	.file 7 "/home/pif/.arduino15/packages/arduino/tools/avr-gcc/7.3.0-atmel3.6.1-arduino7/avr/include/stdio.h"
	.file 8 "/home/pif/.arduino15/packages/arduino/hardware/avr/1.8.4/cores/arduino/Print.h"
	.file 9 "/home/pif/.arduino15/packages/arduino/hardware/avr/1.8.4/variants/eightanaloginputs/../standard/pins_arduino.h"
	.file 10 "/home/pif/.arduino15/packages/arduino/hardware/avr/1.8.4/cores/arduino/Stream.h"